target datalayout = "e-m:e-p270:32:32-p271:32:32-p272:64:64-i64:64-i128:128-f80:128-n8:16:32:64-S128"
target triple = "x86_64-pc-linux-gnu"

%struct.Scl_Tree_t_ = type { ptr, ptr, i64, i32, i32, i32, ptr, ptr, i64, ptr }
%struct.Vec_Str_t_ = type { i32, i32, ptr }
%struct.timespec = type { i64, i64 }

@.str.13 = private unnamed_addr constant [20 x i8] c"Memory = %7.2f MB. \00", align 1
@.str.14 = private unnamed_addr constant [5 x i8] c"%s =\00", align 1
@.str.15 = private unnamed_addr constant [5 x i8] c"Time\00", align 1
@.str.16 = private unnamed_addr constant [11 x i8] c"%9.2f sec\0A\00", align 1

; Function Attrs: nounwind uwtable
define internal void @Vec_StrFree(ptr noundef %0) #0 {
  %2 = alloca ptr, align 8
  store ptr %0, ptr %2, align 8
  %3 = load ptr, ptr %2, align 8
  %4 = getelementptr inbounds %struct.Vec_Str_t_, ptr %3, i32 0, i32 2
  %5 = load ptr, ptr %4, align 8
  %6 = icmp ne ptr %5, null
  br i1 %6, label %7, label %13

7:                                                ; preds = %1
  %8 = load ptr, ptr %2, align 8
  %9 = getelementptr inbounds %struct.Vec_Str_t_, ptr %8, i32 0, i32 2
  %10 = load ptr, ptr %9, align 8
  call void @free(ptr noundef %10) #10
  %11 = load ptr, ptr %2, align 8
  %12 = getelementptr inbounds %struct.Vec_Str_t_, ptr %11, i32 0, i32 2
  store ptr null, ptr %12, align 8
  br label %14

13:                                               ; preds = %1
  br label %14

14:                                               ; preds = %13, %7
  %15 = load ptr, ptr %2, align 8
  %16 = icmp ne ptr %15, null
  br i1 %16, label %17, label %19

17:                                               ; preds = %14
  %18 = load ptr, ptr %2, align 8
  call void @free(ptr noundef %18) #10
  store ptr null, ptr %2, align 8
  br label %20

19:                                               ; preds = %14
  br label %20

20:                                               ; preds = %19, %17
  ret void
}

; Function Attrs: nounwind uwtable
define internal i64 @Abc_Clock() #0 {
  %1 = alloca i64, align 8
  %2 = alloca %struct.timespec, align 8
  %3 = alloca i64, align 8
  %4 = call i32 @clock_gettime(i32 noundef 1, ptr noundef %2) #10
  %5 = icmp slt i32 %4, 0
  br i1 %5, label %6, label %7

6:                                                ; preds = %0
  store i64 -1, ptr %1, align 8
  br label %18

7:                                                ; preds = %0
  %8 = getelementptr inbounds %struct.timespec, ptr %2, i32 0, i32 0
  %9 = load i64, ptr %8, align 8
  %10 = mul nsw i64 %9, 1000000
  store i64 %10, ptr %3, align 8
  %11 = getelementptr inbounds %struct.timespec, ptr %2, i32 0, i32 1
  %12 = load i64, ptr %11, align 8
  %13 = mul nsw i64 %12, 1000000
  %14 = sdiv i64 %13, 1000000000
  %15 = load i64, ptr %3, align 8
  %16 = add nsw i64 %15, %14
  store i64 %16, ptr %3, align 8
  %17 = load i64, ptr %3, align 8
  store i64 %17, ptr %1, align 8
  br label %18

18:                                               ; preds = %7, %6
  %19 = load i64, ptr %1, align 8
  ret i64 %19
}

; Function Attrs: nounwind uwtable
define void @Scl_LibertyStop(ptr noundef %0, i32 noundef %1) #0 {
  %3 = alloca ptr, align 8
  %4 = alloca i32, align 4
  store ptr %0, ptr %3, align 8
  store i32 %1, ptr %4, align 4
  %5 = load i32, ptr %4, align 4
  %6 = icmp ne i32 %5, 0
  br i1 %6, label %7, label %29

7:                                                ; preds = %2
  %8 = load ptr, ptr %3, align 8
  %9 = getelementptr inbounds %struct.Scl_Tree_t_, ptr %8, i32 0, i32 2
  %10 = load i64, ptr %9, align 8
  %11 = load ptr, ptr %3, align 8
  %12 = getelementptr inbounds %struct.Scl_Tree_t_, ptr %11, i32 0, i32 5
  %13 = load i32, ptr %12, align 8
  %14 = sext i32 %13 to i64
  %15 = mul i64 %14, 40
  %16 = add i64 %10, %15
  %17 = uitofp i64 %16 to double
  %18 = fmul double 1.000000e+00, %17
  %19 = fdiv double %18, 0x4130000000000000
  %20 = call i32 (ptr, ...) @printf(ptr noundef @.str.13, double noundef %19)
  call void (i32, ptr, ...) @Abc_Print(i32 noundef 1, ptr noundef @.str.14, ptr noundef @.str.15)
  %21 = call i64 @Abc_Clock()
  %22 = load ptr, ptr %3, align 8
  %23 = getelementptr inbounds %struct.Scl_Tree_t_, ptr %22, i32 0, i32 8
  %24 = load i64, ptr %23, align 8
  %25 = sub nsw i64 %21, %24
  %26 = sitofp i64 %25 to double
  %27 = fmul double 1.000000e+00, %26
  %28 = fdiv double %27, 1.000000e+06
  call void (i32, ptr, ...) @Abc_Print(i32 noundef 1, ptr noundef @.str.16, double noundef %28)
  br label %29

29:                                               ; preds = %7, %2
  %30 = load ptr, ptr %3, align 8
  %31 = getelementptr inbounds %struct.Scl_Tree_t_, ptr %30, i32 0, i32 9
  %32 = load ptr, ptr %31, align 8
  call void @Vec_StrFree(ptr noundef %32)
  %33 = load ptr, ptr %3, align 8
  %34 = getelementptr inbounds %struct.Scl_Tree_t_, ptr %33, i32 0, i32 0
  %35 = load ptr, ptr %34, align 8
  %36 = icmp ne ptr %35, null
  br i1 %36, label %37, label %43

37:                                               ; preds = %29
  %38 = load ptr, ptr %3, align 8
  %39 = getelementptr inbounds %struct.Scl_Tree_t_, ptr %38, i32 0, i32 0
  %40 = load ptr, ptr %39, align 8
  call void @free(ptr noundef %40) #10
  %41 = load ptr, ptr %3, align 8
  %42 = getelementptr inbounds %struct.Scl_Tree_t_, ptr %41, i32 0, i32 0
  store ptr null, ptr %42, align 8
  br label %44

43:                                               ; preds = %29
  br label %44

44:                                               ; preds = %43, %37
  %45 = load ptr, ptr %3, align 8
  %46 = getelementptr inbounds %struct.Scl_Tree_t_, ptr %45, i32 0, i32 1
  %47 = load ptr, ptr %46, align 8
  %48 = icmp ne ptr %47, null
  br i1 %48, label %49, label %55

49:                                               ; preds = %44
  %50 = load ptr, ptr %3, align 8
  %51 = getelementptr inbounds %struct.Scl_Tree_t_, ptr %50, i32 0, i32 1
  %52 = load ptr, ptr %51, align 8
  call void @free(ptr noundef %52) #10
  %53 = load ptr, ptr %3, align 8
  %54 = getelementptr inbounds %struct.Scl_Tree_t_, ptr %53, i32 0, i32 1
  store ptr null, ptr %54, align 8
  br label %56

55:                                               ; preds = %44
  br label %56

56:                                               ; preds = %55, %49
  %57 = load ptr, ptr %3, align 8
  %58 = getelementptr inbounds %struct.Scl_Tree_t_, ptr %57, i32 0, i32 6
  %59 = load ptr, ptr %58, align 8
  %60 = icmp ne ptr %59, null
  br i1 %60, label %61, label %67

61:                                               ; preds = %56
  %62 = load ptr, ptr %3, align 8
  %63 = getelementptr inbounds %struct.Scl_Tree_t_, ptr %62, i32 0, i32 6
  %64 = load ptr, ptr %63, align 8
  call void @free(ptr noundef %64) #10
  %65 = load ptr, ptr %3, align 8
  %66 = getelementptr inbounds %struct.Scl_Tree_t_, ptr %65, i32 0, i32 6
  store ptr null, ptr %66, align 8
  br label %68

67:                                               ; preds = %56
  br label %68

68:                                               ; preds = %67, %61
  %69 = load ptr, ptr %3, align 8
  %70 = getelementptr inbounds %struct.Scl_Tree_t_, ptr %69, i32 0, i32 7
  %71 = load ptr, ptr %70, align 8
  %72 = icmp ne ptr %71, null
  br i1 %72, label %73, label %79

73:                                               ; preds = %68
  %74 = load ptr, ptr %3, align 8
  %75 = getelementptr inbounds %struct.Scl_Tree_t_, ptr %74, i32 0, i32 7
  %76 = load ptr, ptr %75, align 8
  call void @free(ptr noundef %76) #10
  %77 = load ptr, ptr %3, align 8
  %78 = getelementptr inbounds %struct.Scl_Tree_t_, ptr %77, i32 0, i32 7
  store ptr null, ptr %78, align 8
  br label %80

79:                                               ; preds = %68
  br label %80

80:                                               ; preds = %79, %73
  %81 = load ptr, ptr %3, align 8
  %82 = icmp ne ptr %81, null
  br i1 %82, label %83, label %85

83:                                               ; preds = %80
  %84 = load ptr, ptr %3, align 8
  call void @free(ptr noundef %84) #10
  store ptr null, ptr %3, align 8
  br label %86

85:                                               ; preds = %80
  br label %86

86:                                               ; preds = %85, %83
  ret void
}