; Function Attrs: nounwind uwtable
define void @Scl_LibertyStop(ptr noundef captures(none) %0, i32 noundef %1) local_unnamed_addr #4 {
  %3 = alloca %struct.timespec, align 8
  %.not = icmp eq i32 %1, 0
  br i1 %.not, label %29, label %4

4:                                                ; preds = %2
  %5 = getelementptr inbounds nuw i8, ptr %0, i64 16
  %6 = load i64, ptr %5, align 8
  %7 = getelementptr inbounds nuw i8, ptr %0, i64 32
  %8 = load i32, ptr %7, align 8
  %9 = sext i32 %8 to i64
  %10 = mul nsw i64 %9, 40
  %11 = add i64 %10, %6
  %12 = uitofp i64 %11 to double
  %13 = fmul double %12, 0x3EB0000000000000
  %14 = tail call i32 (ptr, ...) @printf(ptr noundef nonnull dereferenceable(1) @.str.13, double noundef %13)
  tail call void (i32, ptr, ...) @Abc_Print(i32 noundef 1, ptr noundef nonnull @.str.14, ptr noundef nonnull @.str.15)
  call void @llvm.lifetime.start.p0(i64 16, ptr nonnull %3)
  %15 = call i32 @clock_gettime(i32 noundef 1, ptr noundef nonnull %3) #29
  %16 = icmp slt i32 %15, 0
  br i1 %16, label %Abc_Clock.exit, label %17

17:                                               ; preds = %4
  %18 = load i64, ptr %3, align 8
  %19 = mul nsw i64 %18, 1000000
  %20 = getelementptr inbounds nuw i8, ptr %3, i64 8
  %21 = load i64, ptr %20, align 8
  %22 = sdiv i64 %21, 1000
  %23 = add nsw i64 %22, %19
  br label %Abc_Clock.exit

Abc_Clock.exit:                                   ; preds = %4, %17
  %.0.i = phi i64 [ %23, %17 ], [ -1, %4 ]
  call void @llvm.lifetime.end.p0(i64 16, ptr nonnull %3)
  %24 = getelementptr inbounds nuw i8, ptr %0, i64 56
  %25 = load i64, ptr %24, align 8
  %26 = sub nsw i64 %.0.i, %25
  %27 = sitofp i64 %26 to double
  %28 = fdiv double %27, 1.000000e+06
  call void (i32, ptr, ...) @Abc_Print(i32 noundef 1, ptr noundef nonnull @.str.16, double noundef %28)
  br label %29

29:                                               ; preds = %Abc_Clock.exit, %2
  %30 = getelementptr inbounds nuw i8, ptr %0, i64 64
  %31 = load ptr, ptr %30, align 8
  %32 = getelementptr inbounds nuw i8, ptr %31, i64 8
  %33 = load ptr, ptr %32, align 8
  %.not.i = icmp eq ptr %33, null
  br i1 %.not.i, label %Vec_StrFree.exit, label %34

34:                                               ; preds = %29
  call void @free(ptr noundef nonnull %33) #29
  br label %Vec_StrFree.exit

Vec_StrFree.exit:                                 ; preds = %29, %34
  call void @free(ptr noundef nonnull %31) #29
  %35 = load ptr, ptr %0, align 8
  %.not21 = icmp eq ptr %35, null
  br i1 %.not21, label %37, label %36

36:                                               ; preds = %Vec_StrFree.exit
  call void @free(ptr noundef nonnull %35) #29
  store ptr null, ptr %0, align 8
  br label %37

37:                                               ; preds = %Vec_StrFree.exit, %36
  %38 = getelementptr inbounds nuw i8, ptr %0, i64 8
  %39 = load ptr, ptr %38, align 8
  %.not22 = icmp eq ptr %39, null
  br i1 %.not22, label %41, label %40

40:                                               ; preds = %37
  call void @free(ptr noundef nonnull %39) #29
  store ptr null, ptr %38, align 8
  br label %41

41:                                               ; preds = %37, %40
  %42 = getelementptr inbounds nuw i8, ptr %0, i64 40
  %43 = load ptr, ptr %42, align 8
  %.not23 = icmp eq ptr %43, null
  br i1 %.not23, label %45, label %44

44:                                               ; preds = %41
  call void @free(ptr noundef nonnull %43) #29
  store ptr null, ptr %42, align 8
  br label %45

45:                                               ; preds = %41, %44
  %46 = getelementptr inbounds nuw i8, ptr %0, i64 48
  %47 = load ptr, ptr %46, align 8
  %.not24 = icmp eq ptr %47, null
  br i1 %.not24, label %49, label %48

48:                                               ; preds = %45
  call void @free(ptr noundef nonnull %47) #29
  br label %49

49:                                               ; preds = %48, %45
  call void @free(ptr noundef nonnull %0) #29
  ret void
}